target datalayout = "e-m:e-p270:32:32-p271:32:32-p272:64:64-i64:64-i128:128-f80:128-n8:16:32:64-S128"
target triple = "x86_64-pc-linux-gnu"

; Function Attrs: noreturn nounwind sspstrong uwtable
define internal void @range_each_bignum_endless(i64 noundef %0) #16 {
  %2 = alloca i64, align 8
  store i64 %0, ptr %2, align 8, !tbaa !7
  br label %3

3:                                                ; preds = %6, %1
  %4 = load i64, ptr %2, align 8, !tbaa !7
  %5 = call i64 @rb_yield(i64 noundef %4)
  br label %6

6:                                                ; preds = %3
  %7 = load i64, ptr %2, align 8, !tbaa !7
  %8 = call i64 @rb_big_plus(i64 noundef %7, i64 noundef 3)
  store i64 %8, ptr %2, align 8, !tbaa !7
  br label %3
}