; Function Attrs: noreturn nounwind sspstrong uwtable
define internal fastcc void @range_each_bignum_endless(i64 noundef %0) unnamed_addr #9 {
  br label %2

2:                                                ; preds = %2, %1
  %.0 = phi i64 [ %0, %1 ], [ %4, %2 ]
  %3 = tail call i64 @rb_yield(i64 noundef %.0) #13
  %4 = tail call i64 @rb_big_plus(i64 noundef %.0, i64 noundef 3) #13
  br label %2
}